target datalayout = "e-m:e-p270:32:32-p271:32:32-p272:64:64-i64:64-i128:128-f80:128-n8:16:32:64-S128"
target triple = "x86_64-pc-linux-gnu"

%struct.AVFilterPad = type { ptr, i32, i32, %union.anon, ptr, ptr, ptr }
%union.anon = type { ptr }
%struct.AVFilterContext = type { ptr, ptr, ptr, ptr, ptr, i32, ptr, ptr, i32, ptr, ptr, i32, i32, ptr, ptr, ptr, ptr, i32, ptr, i32, i32 }
%struct.AMergeContext = type { ptr, i32, [64 x i32], i32, ptr }

@.str.12 = private unnamed_addr constant [5 x i8] c"in%d\00", align 1

; Function Attrs: cold nounwind optsize uwtable
define internal i32 @init(ptr noundef %0) #0 {
  %2 = alloca i32, align 4
  %3 = alloca ptr, align 8
  %4 = alloca ptr, align 8
  %5 = alloca i32, align 4
  %6 = alloca i32, align 4
  %7 = alloca i32, align 4
  %8 = alloca ptr, align 8
  %9 = alloca %struct.AVFilterPad, align 8
  store ptr %0, ptr %3, align 8, !tbaa !4
  call void @llvm.lifetime.start.p0(i64 8, ptr %4) #8
  %10 = load ptr, ptr %3, align 8, !tbaa !4
  %11 = getelementptr inbounds nuw %struct.AVFilterContext, ptr %10, i32 0, i32 9
  %12 = load ptr, ptr %11, align 8, !tbaa !9
  store ptr %12, ptr %4, align 8, !tbaa !22
  call void @llvm.lifetime.start.p0(i64 4, ptr %5) #8
  call void @llvm.lifetime.start.p0(i64 4, ptr %6) #8
  %13 = load ptr, ptr %4, align 8, !tbaa !22
  %14 = getelementptr inbounds nuw %struct.AMergeContext, ptr %13, i32 0, i32 1
  %15 = load i32, ptr %14, align 8, !tbaa !24
  %16 = sext i32 %15 to i64
  %17 = call noalias ptr @av_calloc(i64 noundef %16, i64 noundef 4)
  %18 = load ptr, ptr %4, align 8, !tbaa !22
  %19 = getelementptr inbounds nuw %struct.AMergeContext, ptr %18, i32 0, i32 4
  store ptr %17, ptr %19, align 8, !tbaa !27
  %20 = load ptr, ptr %4, align 8, !tbaa !22
  %21 = getelementptr inbounds nuw %struct.AMergeContext, ptr %20, i32 0, i32 4
  %22 = load ptr, ptr %21, align 8, !tbaa !27
  %23 = icmp ne ptr %22, null
  br i1 %23, label %25, label %24

24:                                               ; preds = %1
  store i32 -12, ptr %2, align 4
  store i32 1, ptr %7, align 4
  br label %55

25:                                               ; preds = %1
  store i32 0, ptr %5, align 4, !tbaa !28
  br label %26

26:                                               ; preds = %51, %25
  %27 = load i32, ptr %5, align 4, !tbaa !28
  %28 = load ptr, ptr %4, align 8, !tbaa !22
  %29 = getelementptr inbounds nuw %struct.AMergeContext, ptr %28, i32 0, i32 1
  %30 = load i32, ptr %29, align 8, !tbaa !24
  %31 = icmp slt i32 %27, %30
  br i1 %31, label %32, label %54

32:                                               ; preds = %26
  call void @llvm.lifetime.start.p0(i64 8, ptr %8) #8
  %33 = load i32, ptr %5, align 4, !tbaa !28
  %34 = call ptr (ptr, ...) @av_asprintf(ptr noundef @.str.12, i32 noundef %33)
  store ptr %34, ptr %8, align 8, !tbaa !29
  call void @llvm.lifetime.start.p0(i64 48, ptr %9) #8
  call void @llvm.memset.p0.i64(ptr align 8 %9, i8 0, i64 48, i1 false)
  %35 = getelementptr inbounds nuw %struct.AVFilterPad, ptr %9, i32 0, i32 0
  %36 = load ptr, ptr %8, align 8, !tbaa !29
  store ptr %36, ptr %35, align 8, !tbaa !30
  %37 = getelementptr inbounds nuw %struct.AVFilterPad, ptr %9, i32 0, i32 1
  store i32 1, ptr %37, align 8, !tbaa !32
  %38 = load ptr, ptr %8, align 8, !tbaa !29
  %39 = icmp ne ptr %38, null
  br i1 %39, label %41, label %40

40:                                               ; preds = %32
  store i32 -12, ptr %2, align 4
  store i32 1, ptr %7, align 4
  br label %48

41:                                               ; preds = %32
  %42 = load ptr, ptr %3, align 8, !tbaa !4
  %43 = call i32 @ff_append_inpad_free_name(ptr noundef %42, ptr noundef %9)
  store i32 %43, ptr %6, align 4, !tbaa !28
  %44 = icmp slt i32 %43, 0
  br i1 %44, label %45, label %47

45:                                               ; preds = %41
  %46 = load i32, ptr %6, align 4, !tbaa !28
  store i32 %46, ptr %2, align 4
  store i32 1, ptr %7, align 4
  br label %48

47:                                               ; preds = %41
  store i32 0, ptr %7, align 4
  br label %48

48:                                               ; preds = %47, %45, %40
  call void @llvm.lifetime.end.p0(i64 48, ptr %9) #8
  call void @llvm.lifetime.end.p0(i64 8, ptr %8) #8
  %49 = load i32, ptr %7, align 4
  switch i32 %49, label %55 [
    i32 0, label %50
  ]

50:                                               ; preds = %48
  br label %51

51:                                               ; preds = %50
  %52 = load i32, ptr %5, align 4, !tbaa !28
  %53 = add nsw i32 %52, 1
  store i32 %53, ptr %5, align 4, !tbaa !28
  br label %26, !llvm.loop !33

54:                                               ; preds = %26
  store i32 0, ptr %2, align 4
  store i32 1, ptr %7, align 4
  br label %55

55:                                               ; preds = %54, %48, %24
  call void @llvm.lifetime.end.p0(i64 4, ptr %6) #8
  call void @llvm.lifetime.end.p0(i64 4, ptr %5) #8
  call void @llvm.lifetime.end.p0(i64 8, ptr %4) #8
  %56 = load i32, ptr %2, align 4
  ret i32 %56
}