; Function Attrs: cold nounwind optsize uwtable
define internal range(i32 -2147483648, 1) i32 @init(ptr noundef %0) #0 {
  %2 = alloca %struct.AVFilterPad, align 8
  %3 = getelementptr inbounds nuw i8, ptr %0, i64 72
  %4 = load ptr, ptr %3, align 8, !tbaa !4
  %5 = getelementptr inbounds nuw i8, ptr %4, i64 8
  %6 = load i32, ptr %5, align 8, !tbaa !20
  %7 = sext i32 %6 to i64
  %8 = tail call noalias ptr @av_calloc(i64 noundef %7, i64 noundef 4) #7
  %9 = getelementptr inbounds nuw i8, ptr %4, i64 272
  store ptr %8, ptr %9, align 8, !tbaa !23
  %.not = icmp eq ptr %8, null
  br i1 %.not, label %.loopexit, label %.preheader

.preheader:                                       ; preds = %1
  %10 = load i32, ptr %5, align 8, !tbaa !20
  %11 = icmp sgt i32 %10, 0
  br i1 %11, label %.lr.ph, label %.loopexit

.lr.ph:                                           ; preds = %.preheader
  %12 = getelementptr inbounds nuw i8, ptr %2, i64 8
  %13 = getelementptr inbounds nuw i8, ptr %2, i64 8
  br label %18

14:                                               ; preds = %20
  %15 = add nuw nsw i32 %.01419, 1
  %16 = load i32, ptr %5, align 8, !tbaa !20
  %17 = icmp slt i32 %15, %16
  br i1 %17, label %18, label %.loopexit, !llvm.loop !24

18:                                               ; preds = %.lr.ph, %14
  %.01419 = phi i32 [ 0, %.lr.ph ], [ %15, %14 ]
  %19 = call ptr (ptr, ...) @av_asprintf(ptr noundef nonnull @.str.12, i32 noundef %.01419) #7
  call void @llvm.lifetime.start.p0(i64 48, ptr nonnull %2) #7
  call void @llvm.memset.p0.i64(ptr noundef nonnull align 8 dereferenceable(40) %13, i8 0, i64 40, i1 false)
  store ptr %19, ptr %2, align 8, !tbaa !26
  store i32 1, ptr %12, align 8, !tbaa !28
  %.not16 = icmp eq ptr %19, null
  br i1 %.not16, label %.thread, label %20

.thread:                                          ; preds = %18
  call void @llvm.lifetime.end.p0(i64 48, ptr nonnull %2) #7
  br label %.loopexit

20:                                               ; preds = %18
  %21 = call i32 @ff_append_inpad_free_name(ptr noundef %0, ptr noundef nonnull %2) #7
  %22 = icmp sgt i32 %21, -1
  call void @llvm.lifetime.end.p0(i64 48, ptr nonnull %2) #7
  br i1 %22, label %14, label %.loopexit

.loopexit:                                        ; preds = %20, %14, %.preheader, %.thread, %1
  %.0 = phi i32 [ -12, %1 ], [ -12, %.thread ], [ 0, %.preheader ], [ %21, %20 ], [ 0, %14 ]
  ret i32 %.0
}